; Function Attrs: mustprogress nofree nounwind willreturn memory(read, inaccessiblemem: none) uwtable
define noundef ptr @_Z22grpc_channel_args_findPK17grpc_channel_argsPKc(ptr noundef readonly %0, ptr noundef readonly captures(none) %1) local_unnamed_addr #22 {
  %.not = icmp eq ptr %0, null
  br i1 %.not, label %.thread, label %.preheader

.preheader:                                       ; preds = %2
  %3 = load i64, ptr %0, align 8, !tbaa !51
  %.not20 = icmp eq i64 %3, 0
  br i1 %.not20, label %.thread, label %.lr.ph

.lr.ph:                                           ; preds = %.preheader
  %4 = getelementptr inbounds nuw i8, ptr %0, i64 8
  %5 = load ptr, ptr %4, align 8, !tbaa !53
  br label %8

6:                                                ; preds = %8
  %7 = add nuw i64 %.01017, 1
  %exitcond.not = icmp eq i64 %7, %3
  br i1 %exitcond.not, label %.thread, label %8, !llvm.loop !179

8:                                                ; preds = %.lr.ph, %6
  %.01017 = phi i64 [ 0, %.lr.ph ], [ %7, %6 ]
  %9 = getelementptr inbounds nuw %struct.grpc_arg, ptr %5, i64 %.01017
  %10 = getelementptr inbounds nuw i8, ptr %9, i64 8
  %11 = load ptr, ptr %10, align 8, !tbaa !40
  %12 = tail call i32 @strcmp(ptr noundef nonnull dereferenceable(1) %11, ptr noundef nonnull dereferenceable(1) %1) #44
  %13 = icmp eq i32 %12, 0
  br i1 %13, label %.thread, label %6

.thread:                                          ; preds = %6, %8, %.preheader, %2
  %.1 = phi ptr [ null, %2 ], [ null, %.preheader ], [ null, %6 ], [ %9, %8 ]
  ret ptr %.1
}